; Function Attrs: mustprogress nounwind uwtable
define hidden void @_ZN18VM_RedefineClasses17map_operand_indexEii(ptr nocapture noundef nonnull align 8 dereferenceable(192) %0, i32 noundef %1, i32 noundef %2) local_unnamed_addr #0 align 2 {
  %4 = getelementptr inbounds i8, ptr %0, i64 60
  %5 = load i32, ptr %4, align 4
  %6 = icmp eq i32 %5, 0
  %7 = icmp eq i32 %1, -1
  %or.cond.i = or i1 %7, %6
  br i1 %or.cond.i, label %_ZN18VM_RedefineClasses22find_new_operand_indexEi.exit, label %8

8:                                                ; preds = %3
  %9 = getelementptr inbounds i8, ptr %0, i64 64
  %10 = load ptr, ptr %9, align 8
  %11 = load i32, ptr %10, align 4
  %.not.i = icmp sgt i32 %11, %1
  br i1 %.not.i, label %12, label %_ZN18VM_RedefineClasses22find_new_operand_indexEi.exit

12:                                               ; preds = %8
  %13 = getelementptr inbounds i8, ptr %10, i64 8
  %14 = load ptr, ptr %13, align 8
  %15 = sext i32 %1 to i64
  %16 = getelementptr inbounds i32, ptr %14, i64 %15
  %17 = load i32, ptr %16, align 4
  %18 = icmp ne i32 %17, -1
  br label %_ZN18VM_RedefineClasses22find_new_operand_indexEi.exit

_ZN18VM_RedefineClasses22find_new_operand_indexEi.exit: ; preds = %3, %8, %12
  %.0.i = phi i1 [ false, %3 ], [ false, %8 ], [ %18, %12 ]
  %19 = icmp eq i32 %2, %1
  %or.cond = or i1 %19, %.0.i
  br i1 %or.cond, label %31, label %20

20:                                               ; preds = %_ZN18VM_RedefineClasses22find_new_operand_indexEi.exit
  %21 = getelementptr inbounds i8, ptr %0, i64 64
  %22 = load ptr, ptr %21, align 8
  %23 = getelementptr inbounds i8, ptr %22, i64 8
  %24 = load ptr, ptr %23, align 8
  %25 = sext i32 %1 to i64
  %26 = getelementptr inbounds i32, ptr %24, i64 %25
  store i32 %2, ptr %26, align 4
  %27 = load i32, ptr %4, align 4
  %28 = add nsw i32 %27, 1
  store i32 %28, ptr %4, align 4
  %29 = load volatile ptr, ptr getelementptr inbounds (i8, ptr @_ZN16LogTagSetMappingILN6LogTag4typeE125ELS1_16ELS1_23ELS1_0ELS1_0ELS1_0EE7_tagsetE, i64 48), align 8
  %.not = icmp eq ptr %29, null
  br i1 %.not, label %31, label %30

30:                                               ; preds = %20
  tail call void (ptr, ...) @_ZN7LogImplILN6LogTag4typeE125ELS1_16ELS1_23ELS1_0ELS1_0ELS1_0EE5writeILN8LogLevel4typeE1EEEvPKcz(ptr noundef nonnull @.str.60, i32 noundef %1, i32 noundef %2)
  br label %31

31:                                               ; preds = %20, %_ZN18VM_RedefineClasses22find_new_operand_indexEi.exit, %30
  ret void
}